target datalayout = "e-m:e-p270:32:32-p271:32:32-p272:64:64-i64:64-i128:128-f80:128-n8:16:32:64-S128"
target triple = "x86_64-pc-linux-gnu"

%struct._generic_N_Vector = type { ptr, ptr, ptr }
%struct._N_VectorContent_SensWrapper = type { ptr, i32, i32 }

; Function Attrs: nounwind uwtable
define double @N_VDotProd_SensWrapper(ptr noundef %0, ptr noundef %1) #0 {
  %3 = alloca ptr, align 8
  %4 = alloca ptr, align 8
  %5 = alloca i32, align 4
  %6 = alloca double, align 8
  store ptr %0, ptr %3, align 8, !tbaa !10
  store ptr %1, ptr %4, align 8, !tbaa !10
  call void @llvm.lifetime.start.p0(i64 4, ptr %5) #5
  call void @llvm.lifetime.start.p0(i64 8, ptr %6) #5
  store double 0.000000e+00, ptr %6, align 8, !tbaa !61
  store i32 0, ptr %5, align 4, !tbaa !3
  br label %7

7:                                                ; preds = %37, %2
  %8 = load i32, ptr %5, align 4, !tbaa !3
  %9 = load ptr, ptr %3, align 8, !tbaa !10
  %10 = getelementptr inbounds nuw %struct._generic_N_Vector, ptr %9, i32 0, i32 0
  %11 = load ptr, ptr %10, align 8, !tbaa !45
  %12 = getelementptr inbounds nuw %struct._N_VectorContent_SensWrapper, ptr %11, i32 0, i32 1
  %13 = load i32, ptr %12, align 8, !tbaa !40
  %14 = icmp slt i32 %8, %13
  br i1 %14, label %15, label %40

15:                                               ; preds = %7
  %16 = load ptr, ptr %3, align 8, !tbaa !10
  %17 = getelementptr inbounds nuw %struct._generic_N_Vector, ptr %16, i32 0, i32 0
  %18 = load ptr, ptr %17, align 8, !tbaa !45
  %19 = getelementptr inbounds nuw %struct._N_VectorContent_SensWrapper, ptr %18, i32 0, i32 0
  %20 = load ptr, ptr %19, align 8, !tbaa !44
  %21 = load i32, ptr %5, align 4, !tbaa !3
  %22 = sext i32 %21 to i64
  %23 = getelementptr inbounds ptr, ptr %20, i64 %22
  %24 = load ptr, ptr %23, align 8, !tbaa !10
  %25 = load ptr, ptr %4, align 8, !tbaa !10
  %26 = getelementptr inbounds nuw %struct._generic_N_Vector, ptr %25, i32 0, i32 0
  %27 = load ptr, ptr %26, align 8, !tbaa !45
  %28 = getelementptr inbounds nuw %struct._N_VectorContent_SensWrapper, ptr %27, i32 0, i32 0
  %29 = load ptr, ptr %28, align 8, !tbaa !44
  %30 = load i32, ptr %5, align 4, !tbaa !3
  %31 = sext i32 %30 to i64
  %32 = getelementptr inbounds ptr, ptr %29, i64 %31
  %33 = load ptr, ptr %32, align 8, !tbaa !10
  %34 = call double @N_VDotProd(ptr noundef %24, ptr noundef %33)
  %35 = load double, ptr %6, align 8, !tbaa !61
  %36 = fadd double %35, %34
  store double %36, ptr %6, align 8, !tbaa !61
  br label %37

37:                                               ; preds = %15
  %38 = load i32, ptr %5, align 4, !tbaa !3
  %39 = add nsw i32 %38, 1
  store i32 %39, ptr %5, align 4, !tbaa !3
  br label %7

40:                                               ; preds = %7
  %41 = load double, ptr %6, align 8, !tbaa !61
  call void @llvm.lifetime.end.p0(i64 8, ptr %6) #5
  call void @llvm.lifetime.end.p0(i64 4, ptr %5) #5
  ret double %41
}